; Function Attrs: nounwind uwtable
define ptr @l_Std_Range_forIn_x27_loop___at___private_Lean_Meta_RecursorInfo_0__Lean_Meta_getProduceMotiveAndRecursive___spec__3___lambda__3___boxed(ptr noundef %0, ptr noundef %1, ptr noundef %2, ptr noundef %3, ptr noundef %4, ptr noundef %5, ptr noundef %6, ptr noundef %7, ptr noundef %8, ptr noundef %9, ptr noundef %10, ptr noundef %11, ptr noundef %12) local_unnamed_addr #0 {
  %14 = ptrtoint ptr %6 to i64
  %15 = lshr i64 %14, 1
  %16 = trunc i64 %15 to i8
  %17 = and i64 %14, 1
  %.not = icmp eq i64 %17, 0
  br i1 %.not, label %18, label %lean_dec.exit24

18:                                               ; preds = %13
  %19 = load i32, ptr %6, align 4, !tbaa !8
  %20 = icmp sgt i32 %19, 1
  br i1 %20, label %21, label %23, !prof !11

21:                                               ; preds = %18
  %22 = add nsw i32 %19, -1
  store i32 %22, ptr %6, align 4, !tbaa !8
  br label %lean_dec.exit24

23:                                               ; preds = %18
  %.not.i = icmp eq i32 %19, 0
  br i1 %.not.i, label %lean_dec.exit24, label %24

24:                                               ; preds = %23
  tail call void @lean_dec_ref_cold(ptr noundef nonnull %6) #6
  br label %lean_dec.exit24

lean_dec.exit24:                                  ; preds = %24, %23, %21, %13
  %25 = tail call ptr @l_Std_Range_forIn_x27_loop___at___private_Lean_Meta_RecursorInfo_0__Lean_Meta_getProduceMotiveAndRecursive___spec__3___lambda__3(ptr noundef %0, ptr noundef %1, ptr noundef %2, ptr noundef %3, ptr noundef %4, ptr noundef %5, i8 noundef zeroext %16, ptr poison, ptr noundef %8, ptr noundef %9, ptr noundef %10, ptr noundef %11, ptr noundef %12)
  %26 = ptrtoint ptr %7 to i64
  %27 = and i64 %26, 1
  %.not35 = icmp eq i64 %27, 0
  br i1 %.not35, label %28, label %lean_dec.exit23

28:                                               ; preds = %lean_dec.exit24
  %29 = load i32, ptr %7, align 4, !tbaa !8
  %30 = icmp sgt i32 %29, 1
  br i1 %30, label %31, label %33, !prof !11

31:                                               ; preds = %28
  %32 = add nsw i32 %29, -1
  store i32 %32, ptr %7, align 4, !tbaa !8
  br label %lean_dec.exit23

33:                                               ; preds = %28
  %.not.i25 = icmp eq i32 %29, 0
  br i1 %.not.i25, label %lean_dec.exit23, label %34

34:                                               ; preds = %33
  tail call void @lean_dec_ref_cold(ptr noundef nonnull %7) #6
  br label %lean_dec.exit23

lean_dec.exit23:                                  ; preds = %34, %33, %31, %lean_dec.exit24
  %35 = ptrtoint ptr %4 to i64
  %36 = and i64 %35, 1
  %.not36 = icmp eq i64 %36, 0
  br i1 %.not36, label %37, label %lean_dec.exit22

37:                                               ; preds = %lean_dec.exit23
  %38 = load i32, ptr %4, align 4, !tbaa !8
  %39 = icmp sgt i32 %38, 1
  br i1 %39, label %40, label %42, !prof !11

40:                                               ; preds = %37
  %41 = add nsw i32 %38, -1
  store i32 %41, ptr %4, align 4, !tbaa !8
  br label %lean_dec.exit22

42:                                               ; preds = %37
  %.not.i27 = icmp eq i32 %38, 0
  br i1 %.not.i27, label %lean_dec.exit22, label %43

43:                                               ; preds = %42
  tail call void @lean_dec_ref_cold(ptr noundef nonnull %4) #6
  br label %lean_dec.exit22

lean_dec.exit22:                                  ; preds = %43, %42, %40, %lean_dec.exit23
  %44 = ptrtoint ptr %3 to i64
  %45 = and i64 %44, 1
  %.not37 = icmp eq i64 %45, 0
  br i1 %.not37, label %46, label %lean_dec.exit21

46:                                               ; preds = %lean_dec.exit22
  %47 = load i32, ptr %3, align 4, !tbaa !8
  %48 = icmp sgt i32 %47, 1
  br i1 %48, label %49, label %51, !prof !11

49:                                               ; preds = %46
  %50 = add nsw i32 %47, -1
  store i32 %50, ptr %3, align 4, !tbaa !8
  br label %lean_dec.exit21

51:                                               ; preds = %46
  %.not.i29 = icmp eq i32 %47, 0
  br i1 %.not.i29, label %lean_dec.exit21, label %52

52:                                               ; preds = %51
  tail call void @lean_dec_ref_cold(ptr noundef nonnull %3) #6
  br label %lean_dec.exit21

lean_dec.exit21:                                  ; preds = %52, %51, %49, %lean_dec.exit22
  %53 = ptrtoint ptr %1 to i64
  %54 = and i64 %53, 1
  %.not38 = icmp eq i64 %54, 0
  br i1 %.not38, label %55, label %lean_dec.exit20

55:                                               ; preds = %lean_dec.exit21
  %56 = load i32, ptr %1, align 4, !tbaa !8
  %57 = icmp sgt i32 %56, 1
  br i1 %57, label %58, label %60, !prof !11

58:                                               ; preds = %55
  %59 = add nsw i32 %56, -1
  store i32 %59, ptr %1, align 4, !tbaa !8
  br label %lean_dec.exit20

60:                                               ; preds = %55
  %.not.i31 = icmp eq i32 %56, 0
  br i1 %.not.i31, label %lean_dec.exit20, label %61

61:                                               ; preds = %60
  tail call void @lean_dec_ref_cold(ptr noundef nonnull %1) #6
  br label %lean_dec.exit20

lean_dec.exit20:                                  ; preds = %61, %60, %58, %lean_dec.exit21
  %62 = ptrtoint ptr %0 to i64
  %63 = and i64 %62, 1
  %.not39 = icmp eq i64 %63, 0
  br i1 %.not39, label %64, label %lean_dec.exit

64:                                               ; preds = %lean_dec.exit20
  %65 = load i32, ptr %0, align 4, !tbaa !8
  %66 = icmp sgt i32 %65, 1
  br i1 %66, label %67, label %69, !prof !11

67:                                               ; preds = %64
  %68 = add nsw i32 %65, -1
  store i32 %68, ptr %0, align 4, !tbaa !8
  br label %lean_dec.exit

69:                                               ; preds = %64
  %.not.i33 = icmp eq i32 %65, 0
  br i1 %.not.i33, label %lean_dec.exit, label %70

70:                                               ; preds = %69
  tail call void @lean_dec_ref_cold(ptr noundef nonnull %0) #6
  br label %lean_dec.exit

lean_dec.exit:                                    ; preds = %70, %69, %67, %lean_dec.exit20
  ret ptr %25
}